; Function Attrs: nounwind uwtable
define dso_local void @ExecReScanLimit(ptr noundef captures(none) initializes((224, 232)) %0) local_unnamed_addr #0 {
  %2 = getelementptr inbounds nuw i8, ptr %0, i64 72
  %3 = load ptr, ptr %2, align 8
  tail call fastcc void @recompute_limits(ptr noundef %0)
  %4 = getelementptr inbounds nuw i8, ptr %3, i64 104
  %5 = load ptr, ptr %4, align 8
  %6 = icmp eq ptr %5, null
  br i1 %6, label %7, label %8

7:                                                ; preds = %1
  tail call void @ExecReScan(ptr noundef nonnull %3) #6
  br label %8

8:                                                ; preds = %7, %1
  ret void
}